target datalayout = "e-m:e-p270:32:32-p271:32:32-p272:64:64-i64:64-i128:128-f80:128-n8:16:32:64-S128"
target triple = "x86_64-pc-linux-gnu"

%union.stbcc__global_clumpid = type { %struct.anon }
%struct.anon = type { i32 }
%struct.st_stbcc_grid = type { i32, i32, i32, i32, i32, [1024 x [128 x i8]], [1024 x [1024 x i16]], [32 x [32 x %struct.stbcc__cluster]] }
%struct.stbcc__cluster = type { i16, i8, i8, [512 x %struct.stbcc__clump], [128 x %struct.stbcc__relative_clumpid] }
%struct.stbcc__clump = type { %union.stbcc__global_clumpid, i8, i8, i8, i8 }
%struct.stbcc__relative_clumpid = type { i16 }

; Function Attrs: nounwind uwtable
define i32 @stbcc__clump_find(ptr noundef %0, i32 %1) #0 {
  %3 = alloca %union.stbcc__global_clumpid, align 4
  %4 = alloca %union.stbcc__global_clumpid, align 4
  %5 = alloca ptr, align 8
  %6 = alloca %union.stbcc__global_clumpid, align 4
  %7 = alloca ptr, align 8
  %8 = alloca i32, align 4
  %9 = alloca %union.stbcc__global_clumpid, align 4
  %10 = getelementptr inbounds nuw %union.stbcc__global_clumpid, ptr %4, i32 0, i32 0
  %11 = getelementptr inbounds nuw %struct.anon, ptr %10, i32 0, i32 0
  store i32 %1, ptr %11, align 4
  store ptr %0, ptr %5, align 8, !tbaa !3
  call void @llvm.lifetime.start.p0(i64 4, ptr %6) #4
  call void @llvm.lifetime.start.p0(i64 8, ptr %7) #4
  %12 = load ptr, ptr %5, align 8, !tbaa !3
  %13 = getelementptr inbounds nuw %struct.st_stbcc_grid, ptr %12, i32 0, i32 7
  %14 = load i32, ptr %4, align 4
  %15 = lshr i32 %14, 22
  %16 = zext i32 %15 to i64
  %17 = getelementptr inbounds nuw [32 x [32 x %struct.stbcc__cluster]], ptr %13, i64 0, i64 %16
  %18 = load i32, ptr %4, align 4
  %19 = lshr i32 %18, 12
  %20 = and i32 %19, 1023
  %21 = zext i32 %20 to i64
  %22 = getelementptr inbounds nuw [32 x %struct.stbcc__cluster], ptr %17, i64 0, i64 %21
  %23 = getelementptr inbounds nuw %struct.stbcc__cluster, ptr %22, i32 0, i32 3
  %24 = load i32, ptr %4, align 4
  %25 = and i32 %24, 4095
  %26 = zext i32 %25 to i64
  %27 = getelementptr inbounds nuw [512 x %struct.stbcc__clump], ptr %23, i64 0, i64 %26
  store ptr %27, ptr %7, align 8, !tbaa !14
  %28 = load ptr, ptr %7, align 8, !tbaa !14
  %29 = getelementptr inbounds nuw %struct.stbcc__clump, ptr %28, i32 0, i32 0
  %30 = load i32, ptr %29, align 4, !tbaa !13
  %31 = load i32, ptr %4, align 4, !tbaa !13
  %32 = icmp eq i32 %30, %31
  br i1 %32, label %33, label %34

33:                                               ; preds = %2
  call void @llvm.memcpy.p0.p0.i64(ptr align 4 %3, ptr align 4 %4, i64 4, i1 false), !tbaa.struct !12
  store i32 1, ptr %8, align 4
  br label %46

34:                                               ; preds = %2
  call void @llvm.lifetime.start.p0(i64 4, ptr %9) #4
  %35 = load ptr, ptr %5, align 8, !tbaa !3
  %36 = load ptr, ptr %7, align 8, !tbaa !14
  %37 = getelementptr inbounds nuw %struct.stbcc__clump, ptr %36, i32 0, i32 0
  %38 = getelementptr inbounds nuw %union.stbcc__global_clumpid, ptr %37, i32 0, i32 0
  %39 = getelementptr inbounds nuw %struct.anon, ptr %38, i32 0, i32 0
  %40 = load i32, ptr %39, align 4
  %41 = call i32 @stbcc__clump_find(ptr noundef %35, i32 %40)
  %42 = getelementptr inbounds nuw %union.stbcc__global_clumpid, ptr %9, i32 0, i32 0
  %43 = getelementptr inbounds nuw %struct.anon, ptr %42, i32 0, i32 0
  store i32 %41, ptr %43, align 4
  call void @llvm.memcpy.p0.p0.i64(ptr align 4 %6, ptr align 4 %9, i64 4, i1 false), !tbaa.struct !12
  call void @llvm.lifetime.end.p0(i64 4, ptr %9) #4
  %44 = load ptr, ptr %7, align 8, !tbaa !14
  %45 = getelementptr inbounds nuw %struct.stbcc__clump, ptr %44, i32 0, i32 0
  call void @llvm.memcpy.p0.p0.i64(ptr align 4 %45, ptr align 4 %6, i64 4, i1 false), !tbaa.struct !12
  call void @llvm.memcpy.p0.p0.i64(ptr align 4 %3, ptr align 4 %6, i64 4, i1 false), !tbaa.struct !12
  store i32 1, ptr %8, align 4
  br label %46

46:                                               ; preds = %34, %33
  call void @llvm.lifetime.end.p0(i64 8, ptr %7) #4
  call void @llvm.lifetime.end.p0(i64 4, ptr %6) #4
  %47 = getelementptr inbounds nuw %union.stbcc__global_clumpid, ptr %3, i32 0, i32 0
  %48 = getelementptr inbounds nuw %struct.anon, ptr %47, i32 0, i32 0
  %49 = load i32, ptr %48, align 4
  ret i32 %49
}