; Function Attrs: nofree nosync nounwind memory(argmem: readwrite) uwtable
define i32 @stbcc__clump_find(ptr noundef captures(none) %0, i32 %1) local_unnamed_addr #3 {
  %3 = getelementptr inbounds nuw i8, ptr %0, i64 2228244
  %4 = lshr i32 %1, 22
  %5 = lshr i32 %1, 12
  %6 = and i32 %5, 1023
  %narrow = mul nuw nsw i32 %4, 139392
  %narrow15 = mul nuw nsw i32 %6, 4356
  %narrow16 = add nuw nsw i32 %narrow15, %narrow
  %7 = zext nneg i32 %narrow16 to i64
  %8 = getelementptr inbounds nuw i8, ptr %3, i64 %7
  %9 = getelementptr inbounds nuw i8, ptr %8, i64 4
  %10 = and i32 %1, 4095
  %11 = zext nneg i32 %10 to i64
  %12 = getelementptr inbounds nuw [512 x %struct.stbcc__clump], ptr %9, i64 0, i64 %11
  %13 = load i32, ptr %12, align 4, !tbaa !7
  %14 = icmp eq i32 %13, %1
  br i1 %14, label %common.ret18, label %15

common.ret18:                                     ; preds = %2, %15
  %common.ret18.op = phi i32 [ %16, %15 ], [ %1, %2 ]
  ret i32 %common.ret18.op

15:                                               ; preds = %2
  %16 = tail call i32 @stbcc__clump_find(ptr noundef nonnull %0, i32 %13)
  store i32 %16, ptr %12, align 4, !tbaa !7
  br label %common.ret18
}